target datalayout = "e-m:e-p270:32:32-p271:32:32-p272:64:64-i64:64-i128:128-f80:128-n8:16:32:64-S128"
target triple = "x86_64-pc-linux-gnu"

@.str.28 = private unnamed_addr constant [5 x i8] c"type\00", align 1

; Function Attrs: nounwind uwtable
define internal zeroext i1 @_find_msg_name(ptr noundef %0, ptr noundef %1) #0 {
  %3 = alloca i1, align 1
  %4 = alloca ptr, align 8
  %5 = alloca ptr, align 8
  %6 = alloca ptr, align 8
  %7 = alloca i32, align 4
  store ptr %0, ptr %4, align 8
  store ptr %1, ptr %5, align 8
  call void @llvm.lifetime.start.p0(i64 8, ptr %6) #7
  store ptr null, ptr %6, align 8
  %8 = load ptr, ptr %4, align 8
  %9 = call i32 @data_get_type(ptr noundef %8)
  %10 = icmp ne i32 %9, 3
  br i1 %10, label %11, label %12

11:                                               ; preds = %2
  store i1 false, ptr %3, align 1
  store i32 1, ptr %7, align 4
  br label %26

12:                                               ; preds = %2
  %13 = load ptr, ptr %4, align 8
  %14 = call ptr @data_key_get_const(ptr noundef %13, ptr noundef @.str.28)
  store ptr %14, ptr %6, align 8
  %15 = load ptr, ptr %6, align 8
  %16 = call i32 @data_get_type(ptr noundef %15)
  %17 = icmp ne i32 %16, 5
  br i1 %17, label %18, label %19

18:                                               ; preds = %12
  store i1 false, ptr %3, align 1
  store i32 1, ptr %7, align 4
  br label %26

19:                                               ; preds = %12
  %20 = load ptr, ptr %6, align 8
  %21 = call ptr @data_get_string(ptr noundef %20)
  %22 = load ptr, ptr %5, align 8
  %23 = call i32 @xstrcasecmp(ptr noundef %21, ptr noundef %22)
  %24 = icmp ne i32 %23, 0
  %25 = xor i1 %24, true
  store i1 %25, ptr %3, align 1
  store i32 1, ptr %7, align 4
  br label %26

26:                                               ; preds = %19, %18, %11
  call void @llvm.lifetime.end.p0(i64 8, ptr %6) #7
  %27 = load i1, ptr %3, align 1
  ret i1 %27
}