; Function Attrs: nounwind uwtable
define internal zeroext i1 @_find_msg_name(ptr noundef %0, ptr noundef %1) #0 {
  %3 = tail call i32 @data_get_type(ptr noundef %0) #9
  %.not = icmp eq i32 %3, 3
  br i1 %.not, label %4, label %10

4:                                                ; preds = %2
  %5 = tail call ptr @data_key_get_const(ptr noundef %0, ptr noundef nonnull @.str.28) #9
  %6 = tail call i32 @data_get_type(ptr noundef %5) #9
  %.not6 = icmp eq i32 %6, 5
  br i1 %.not6, label %7, label %10

7:                                                ; preds = %4
  %8 = tail call ptr @data_get_string(ptr noundef %5) #9
  %9 = tail call i32 @xstrcasecmp(ptr noundef %8, ptr noundef %1) #9
  %.not7 = icmp eq i32 %9, 0
  br label %10

10:                                               ; preds = %4, %2, %7
  %.0 = phi i1 [ %.not7, %7 ], [ false, %2 ], [ false, %4 ]
  ret i1 %.0
}